; Function Attrs: inlinehint mustprogress nounwind uwtable
define internal fastcc void @_ZN6spacer12_GLOBAL__N_130limit_denominator_rewriter_cfgD2Ev(ptr noundef nonnull align 8 dereferenceable(56) %0) unnamed_addr #7 align 2 personality ptr @__gxx_personality_v0 {
  %2 = getelementptr inbounds nuw i8, ptr %0, i64 24
  %3 = load ptr, ptr @_ZN8rational13g_mpq_managerE, align 8, !tbaa !76
  invoke void @_ZN11mpz_managerILb1EE3delEPS0_R3mpz(ptr noundef %3, ptr noundef nonnull align 8 dereferenceable(32) %2)
          to label %.noexc.i unwind label %5

.noexc.i:                                         ; preds = %1
  %4 = getelementptr inbounds nuw i8, ptr %0, i64 40
  invoke void @_ZN11mpz_managerILb1EE3delEPS0_R3mpz(ptr noundef %3, ptr noundef nonnull align 8 dereferenceable(16) %4)
          to label %_ZN8rationalD2Ev.exit unwind label %5

5:                                                ; preds = %.noexc.i, %1
  %6 = landingpad { ptr, i32 }
          catch ptr null
  %7 = extractvalue { ptr, i32 } %6, 0
  tail call void @__clang_call_terminate(ptr %7) #21
  unreachable

_ZN8rationalD2Ev.exit:                            ; preds = %.noexc.i
  ret void
}